; Function Attrs: nounwind uwtable
define ptr @l_Lean_Meta_withLetDecl___at_Lean_Meta_forEachExpr_x27_visit___spec__10___rarg(ptr noundef %0, ptr noundef %1, ptr readnone captures(none) %2, ptr readnone captures(none) %3, ptr noundef %4, ptr noundef %5, ptr noundef %6, ptr noundef %7, i8 noundef zeroext %8, ptr noundef %9) local_unnamed_addr #0 {
  %11 = getelementptr inbounds nuw i8, ptr %0, i64 16
  %12 = load ptr, ptr %11, align 8, !tbaa !9
  %13 = ptrtoint ptr %12 to i64
  %14 = and i64 %13, 1
  %.not = icmp eq i64 %14, 0
  br i1 %.not, label %15, label %lean_inc.exit25

15:                                               ; preds = %10
  %.val.i = load i32, ptr %12, align 4, !tbaa !4
  %16 = icmp sgt i32 %.val.i, 0
  br i1 %16, label %17, label %19, !prof !13

17:                                               ; preds = %15
  %18 = add nuw i32 %.val.i, 1
  store i32 %18, ptr %12, align 4, !tbaa !4
  br label %lean_inc.exit25

19:                                               ; preds = %15
  %.not.i26 = icmp eq i32 %.val.i, 0
  br i1 %.not.i26, label %lean_inc.exit25, label %20

20:                                               ; preds = %19
  tail call void @lean_inc_ref_cold(ptr noundef nonnull %12) #4
  br label %lean_inc.exit25

lean_inc.exit25:                                  ; preds = %20, %19, %17, %10
  %21 = ptrtoint ptr %0 to i64
  %22 = and i64 %21, 1
  %.not31 = icmp eq i64 %22, 0
  br i1 %.not31, label %23, label %lean_dec.exit

23:                                               ; preds = %lean_inc.exit25
  %24 = load i32, ptr %0, align 4, !tbaa !4
  %25 = icmp sgt i32 %24, 1
  br i1 %25, label %26, label %28, !prof !13

26:                                               ; preds = %23
  %27 = add nsw i32 %24, -1
  store i32 %27, ptr %0, align 4, !tbaa !4
  br label %lean_dec.exit

28:                                               ; preds = %23
  %.not.i = icmp eq i32 %24, 0
  br i1 %.not.i, label %lean_dec.exit, label %29

29:                                               ; preds = %28
  tail call void @lean_dec_ref_cold(ptr noundef nonnull %0) #4
  br label %lean_dec.exit

lean_dec.exit:                                    ; preds = %29, %28, %26, %lean_inc.exit25
  %30 = getelementptr inbounds nuw i8, ptr %1, i64 8
  %31 = load ptr, ptr %30, align 8, !tbaa !9
  %32 = ptrtoint ptr %31 to i64
  %33 = and i64 %32, 1
  %.not32 = icmp eq i64 %33, 0
  br i1 %.not32, label %34, label %lean_inc.exit

34:                                               ; preds = %lean_dec.exit
  %.val.i27 = load i32, ptr %31, align 4, !tbaa !4
  %35 = icmp sgt i32 %.val.i27, 0
  br i1 %35, label %36, label %38, !prof !13

36:                                               ; preds = %34
  %37 = add nuw i32 %.val.i27, 1
  store i32 %37, ptr %31, align 4, !tbaa !4
  br label %lean_inc.exit

38:                                               ; preds = %34
  %.not.i28 = icmp eq i32 %.val.i27, 0
  br i1 %.not.i28, label %lean_inc.exit, label %39

39:                                               ; preds = %38
  tail call void @lean_inc_ref_cold(ptr noundef nonnull %31) #4
  br label %lean_inc.exit

lean_inc.exit:                                    ; preds = %39, %38, %36, %lean_dec.exit
  tail call void @lean_inc_heartbeat() #4
  %40 = tail call noalias ptr @mi_malloc_small(i64 noundef 72) #4
  %41 = icmp eq ptr %40, null
  br i1 %41, label %42, label %lean_alloc_closure.exit

42:                                               ; preds = %lean_inc.exit
  tail call void @lean_internal_panic_out_of_memory() #5
  unreachable

lean_alloc_closure.exit:                          ; preds = %lean_inc.exit
  %43 = zext i8 %8 to i64
  %44 = shl nuw nsw i64 %43, 1
  %45 = or disjoint i64 %44, 1
  %46 = inttoptr i64 %45 to ptr
  %47 = getelementptr inbounds nuw i8, ptr %40, i64 4
  store i32 1, ptr %40, align 4, !tbaa !4
  store i32 -184549304, ptr %47, align 4
  %48 = getelementptr inbounds nuw i8, ptr %40, i64 8
  store ptr @l_Lean_Meta_withLetDecl___at_Lean_Meta_forEachExpr_x27_visit___spec__10___rarg___lambda__1___boxed, ptr %48, align 8, !tbaa !9
  %49 = getelementptr inbounds nuw i8, ptr %40, i64 16
  store i16 12, ptr %49, align 8, !tbaa !11
  %50 = getelementptr inbounds nuw i8, ptr %40, i64 18
  store i16 6, ptr %50, align 2, !tbaa !11
  %51 = getelementptr inbounds nuw i8, ptr %40, i64 24
  store ptr %7, ptr %51, align 8, !tbaa !9
  %52 = getelementptr inbounds nuw i8, ptr %40, i64 32
  store ptr %9, ptr %52, align 8, !tbaa !9
  %53 = getelementptr inbounds nuw i8, ptr %40, i64 40
  store ptr %4, ptr %53, align 8, !tbaa !9
  %54 = getelementptr inbounds nuw i8, ptr %40, i64 48
  store ptr %5, ptr %54, align 8, !tbaa !9
  %55 = getelementptr inbounds nuw i8, ptr %40, i64 56
  store ptr %6, ptr %55, align 8, !tbaa !9
  %56 = getelementptr inbounds nuw i8, ptr %40, i64 64
  store ptr %46, ptr %56, align 8, !tbaa !9
  %57 = tail call ptr @lean_apply_2(ptr noundef %31, ptr noundef nonnull inttoptr (i64 1 to ptr), ptr noundef nonnull %40) #4
  tail call void @lean_inc_heartbeat() #4
  %58 = tail call noalias ptr @mi_malloc_small(i64 noundef 32) #4
  %59 = icmp eq ptr %58, null
  br i1 %59, label %60, label %lean_alloc_closure.exit30

60:                                               ; preds = %lean_alloc_closure.exit
  tail call void @lean_internal_panic_out_of_memory() #5
  unreachable

lean_alloc_closure.exit30:                        ; preds = %lean_alloc_closure.exit
  %61 = getelementptr inbounds nuw i8, ptr %58, i64 4
  store i32 1, ptr %58, align 4, !tbaa !4
  store i32 -184549344, ptr %61, align 4
  %62 = getelementptr inbounds nuw i8, ptr %58, i64 8
  store ptr @l_Lean_Meta_withLocalDecl___at_Lean_Meta_forEachExpr_x27_visit___spec__4___rarg___lambda__3, ptr %62, align 8, !tbaa !9
  %63 = getelementptr inbounds nuw i8, ptr %58, i64 16
  store i16 2, ptr %63, align 8, !tbaa !11
  %64 = getelementptr inbounds nuw i8, ptr %58, i64 18
  store i16 1, ptr %64, align 2, !tbaa !11
  %65 = getelementptr inbounds nuw i8, ptr %58, i64 24
  store ptr %1, ptr %65, align 8, !tbaa !9
  %66 = tail call ptr @lean_apply_4(ptr noundef %12, ptr noundef nonnull inttoptr (i64 1 to ptr), ptr noundef nonnull inttoptr (i64 1 to ptr), ptr noundef %57, ptr noundef nonnull %58) #4
  ret ptr %66
}